target datalayout = "e-m:e-p270:32:32-p271:32:32-p272:64:64-i64:64-i128:128-f80:128-n8:16:32:64-S128"
target triple = "x86_64-pc-linux-gnu"

%struct.ccan_list_head = type { %struct.ccan_list_node }
%struct.ccan_list_node = type { ptr, ptr }
%struct.sync_waiter = type { i64, ptr, ptr, %struct.ccan_list_node }
%struct.queue_waiter = type { %struct.sync_waiter, %union.anon.30 }
%union.anon.30 = type { ptr }
%struct.rb_queue = type <{ %struct.ccan_list_head, i64, i64, i32 }>

@.str.163 = private unnamed_addr constant [22 x i8] c"../thread_sync.c:1051\00", align 1

; Function Attrs: inlinehint nounwind sspstrong uwtable
define internal void @ccan_list_del_(ptr noundef %0, ptr noundef %1) #1 {
  %3 = alloca ptr, align 8
  %4 = alloca ptr, align 8
  store ptr %0, ptr %3, align 8, !tbaa !130
  store ptr %1, ptr %4, align 8, !tbaa !17
  %5 = load ptr, ptr %3, align 8, !tbaa !130
  %6 = getelementptr inbounds nuw %struct.ccan_list_node, ptr %5, i32 0, i32 1
  %7 = load ptr, ptr %6, align 8, !tbaa !137
  %8 = load ptr, ptr %3, align 8, !tbaa !130
  %9 = getelementptr inbounds nuw %struct.ccan_list_node, ptr %8, i32 0, i32 0
  %10 = load ptr, ptr %9, align 8, !tbaa !125
  %11 = getelementptr inbounds nuw %struct.ccan_list_node, ptr %10, i32 0, i32 1
  store ptr %7, ptr %11, align 8, !tbaa !137
  %12 = load ptr, ptr %3, align 8, !tbaa !130
  %13 = getelementptr inbounds nuw %struct.ccan_list_node, ptr %12, i32 0, i32 0
  %14 = load ptr, ptr %13, align 8, !tbaa !125
  %15 = load ptr, ptr %3, align 8, !tbaa !130
  %16 = getelementptr inbounds nuw %struct.ccan_list_node, ptr %15, i32 0, i32 1
  %17 = load ptr, ptr %16, align 8, !tbaa !137
  %18 = getelementptr inbounds nuw %struct.ccan_list_node, ptr %17, i32 0, i32 0
  store ptr %14, ptr %18, align 8, !tbaa !125
  ret void
}

; Function Attrs: nounwind sspstrong uwtable
define internal i64 @queue_sleep_done(i64 noundef %0) #0 {
  %2 = alloca i64, align 8
  %3 = alloca ptr, align 8
  store i64 %0, ptr %2, align 8, !tbaa !22
  call void @llvm.lifetime.start.p0(i64 8, ptr %3) #16
  %4 = load i64, ptr %2, align 8, !tbaa !22
  %5 = inttoptr i64 %4 to ptr
  store ptr %5, ptr %3, align 8, !tbaa !464
  %6 = load ptr, ptr %3, align 8, !tbaa !464
  %7 = getelementptr inbounds nuw %struct.queue_waiter, ptr %6, i32 0, i32 0
  %8 = getelementptr inbounds nuw %struct.sync_waiter, ptr %7, i32 0, i32 3
  call void @ccan_list_del_(ptr noundef %8, ptr noundef @.str.163)
  %9 = load ptr, ptr %3, align 8, !tbaa !464
  %10 = getelementptr inbounds nuw %struct.queue_waiter, ptr %9, i32 0, i32 1
  %11 = load ptr, ptr %10, align 8, !tbaa !198
  %12 = getelementptr inbounds nuw %struct.rb_queue, ptr %11, i32 0, i32 3
  %13 = load i32, ptr %12, align 1, !tbaa !460
  %14 = add i32 %13, -1
  store i32 %14, ptr %12, align 1, !tbaa !460
  call void @llvm.lifetime.end.p0(i64 8, ptr %3) #16
  ret i64 0
}