; Function Attrs: mustprogress nofree norecurse nosync nounwind sspstrong willreturn memory(readwrite, inaccessiblemem: none) uwtable
define internal noundef i64 @queue_sleep_done(i64 noundef %0) #27 {
  %2 = inttoptr i64 %0 to ptr
  %3 = getelementptr inbounds nuw i8, ptr %2, i64 24
  %4 = getelementptr inbounds nuw i8, ptr %2, i64 32
  %5 = load ptr, ptr %4, align 8, !tbaa !83
  %6 = load ptr, ptr %3, align 8, !tbaa !84
  %7 = getelementptr inbounds nuw i8, ptr %6, i64 8
  store ptr %5, ptr %7, align 8, !tbaa !83
  store ptr %6, ptr %5, align 8, !tbaa !84
  %8 = getelementptr inbounds nuw i8, ptr %2, i64 40
  %9 = load ptr, ptr %8, align 8, !tbaa !44
  %10 = getelementptr inbounds nuw i8, ptr %9, i64 32
  %11 = load i32, ptr %10, align 1, !tbaa !196
  %12 = add i32 %11, -1
  store i32 %12, ptr %10, align 1, !tbaa !196
  ret i64 0
}